; Function Attrs: mustprogress uwtable
define hidden noundef zeroext i1 @_ZN8datatype4util27is_considered_uninterpretedEP9func_decljPKP4expr(ptr noundef nonnull align 8 captures(none) dereferenceable(24) %0, ptr noundef %1, i32 noundef %2, ptr noundef readonly captures(none) %3) local_unnamed_addr #4 align 2 {
  %5 = alloca %class.symbol, align 8
  %6 = alloca %class.symbol, align 8
  %7 = getelementptr inbounds nuw i8, ptr %0, i64 8
  %8 = load i32, ptr %7, align 8, !tbaa !47
  %9 = icmp eq i32 %8, -1
  br i1 %9, label %10, label %_ZNK8datatype4util3fidEv.exit.i

10:                                               ; preds = %4
  %11 = load ptr, ptr %0, align 8, !tbaa !50
  call void @llvm.lifetime.start.p0(i64 8, ptr nonnull %6) #28
  call void @_ZN6symbolC1EPKc(ptr noundef nonnull align 8 dereferenceable(8) %6, ptr noundef nonnull @.str.34)
  %12 = getelementptr inbounds nuw i8, ptr %11, i64 560
  %13 = call noundef i32 @_ZNK14family_manager13get_family_idERK6symbol(ptr noundef nonnull align 8 dereferenceable(56) %12, ptr noundef nonnull align 8 dereferenceable(8) %6)
  call void @llvm.lifetime.end.p0(i64 8, ptr nonnull %6) #28
  store i32 %13, ptr %7, align 8, !tbaa !47
  br label %_ZNK8datatype4util3fidEv.exit.i

_ZNK8datatype4util3fidEv.exit.i:                  ; preds = %10, %4
  %14 = phi i32 [ %13, %10 ], [ %8, %4 ]
  %15 = getelementptr inbounds nuw i8, ptr %1, i64 24
  %16 = load ptr, ptr %15, align 8, !tbaa !65
  %17 = icmp eq ptr %16, null
  br i1 %17, label %_ZNK8datatype4util11is_accessorEP9func_decl.exit.thread, label %_ZNK4decl13get_family_idEv.exit.thread.i.i

_ZNK4decl13get_family_idEv.exit.thread.i.i:       ; preds = %_ZNK8datatype4util3fidEv.exit.i
  %18 = load i32, ptr %16, align 8, !tbaa !282
  %19 = icmp eq i32 %18, %14
  br i1 %19, label %_ZNK8datatype4util11is_accessorEP9func_decl.exit, label %_ZNK8datatype4util11is_accessorEP9func_decl.exit.thread

_ZNK8datatype4util11is_accessorEP9func_decl.exit: ; preds = %_ZNK4decl13get_family_idEv.exit.thread.i.i
  %20 = getelementptr inbounds nuw i8, ptr %16, i64 4
  %21 = load i32, ptr %20, align 4, !tbaa !284
  %22 = icmp eq i32 %21, 3
  br i1 %22, label %23, label %_ZNK8datatype4util11is_accessorEP9func_decl.exit.thread

23:                                               ; preds = %_ZNK8datatype4util11is_accessorEP9func_decl.exit
  %24 = call noundef ptr @_ZN8datatype4util24get_accessor_constructorEP9func_decl(ptr noundef nonnull align 8 dereferenceable(24) %0, ptr noundef nonnull %1)
  %25 = load ptr, ptr %3, align 8, !tbaa !395
  %26 = getelementptr inbounds nuw i8, ptr %25, i64 4
  %27 = load i32, ptr %26, align 4
  %28 = and i32 %27, 65535
  %29 = icmp eq i32 %28, 0
  br i1 %29, label %30, label %_ZNK8datatype4util11is_accessorEP9func_decl.exit.thread

30:                                               ; preds = %23
  %31 = load i32, ptr %7, align 8, !tbaa !47
  %32 = icmp eq i32 %31, -1
  br i1 %32, label %33, label %_ZNK8datatype4util3fidEv.exit.i.i

33:                                               ; preds = %30
  %34 = load ptr, ptr %0, align 8, !tbaa !50
  call void @llvm.lifetime.start.p0(i64 8, ptr nonnull %5) #28
  call void @_ZN6symbolC1EPKc(ptr noundef nonnull align 8 dereferenceable(8) %5, ptr noundef nonnull @.str.34)
  %35 = getelementptr inbounds nuw i8, ptr %34, i64 560
  %36 = call noundef i32 @_ZNK14family_manager13get_family_idERK6symbol(ptr noundef nonnull align 8 dereferenceable(56) %35, ptr noundef nonnull align 8 dereferenceable(8) %5)
  call void @llvm.lifetime.end.p0(i64 8, ptr nonnull %5) #28
  store i32 %36, ptr %7, align 8, !tbaa !47
  %.pre.i = load i32, ptr %26, align 4
  br label %_ZNK8datatype4util3fidEv.exit.i.i

_ZNK8datatype4util3fidEv.exit.i.i:                ; preds = %33, %30
  %37 = phi i32 [ %.pre.i, %33 ], [ %27, %30 ]
  %38 = phi i32 [ %36, %33 ], [ %31, %30 ]
  %39 = and i32 %37, 65535
  %40 = icmp eq i32 %39, 0
  br i1 %40, label %41, label %_ZNK8datatype4util11is_accessorEP9func_decl.exit.thread

41:                                               ; preds = %_ZNK8datatype4util3fidEv.exit.i.i
  %42 = getelementptr inbounds nuw i8, ptr %25, i64 16
  %43 = load ptr, ptr %42, align 8, !tbaa !456
  %44 = getelementptr inbounds nuw i8, ptr %43, i64 24
  %45 = load ptr, ptr %44, align 8, !tbaa !65
  %.not.i.i.i.i.i = icmp eq ptr %45, null
  br i1 %.not.i.i.i.i.i, label %_ZNK8datatype4util11is_accessorEP9func_decl.exit.thread, label %_ZNK8datatype4util14is_constructorEPK4expr.exit

_ZNK8datatype4util14is_constructorEPK4expr.exit:  ; preds = %41
  %46 = load i32, ptr %45, align 8, !tbaa !282
  %47 = icmp eq i32 %46, %38
  %48 = getelementptr inbounds nuw i8, ptr %45, i64 4
  %49 = load i32, ptr %48, align 4
  %50 = icmp eq i32 %49, 0
  %51 = select i1 %47, i1 %50, i1 false
  br i1 %51, label %52, label %_ZNK8datatype4util11is_accessorEP9func_decl.exit.thread

52:                                               ; preds = %_ZNK8datatype4util14is_constructorEPK4expr.exit
  %53 = load ptr, ptr %3, align 8, !tbaa !395
  %54 = getelementptr inbounds nuw i8, ptr %53, i64 16
  %55 = load ptr, ptr %54, align 8, !tbaa !456
  %56 = icmp ne ptr %55, %24
  br label %_ZNK8datatype4util11is_accessorEP9func_decl.exit.thread

_ZNK8datatype4util11is_accessorEP9func_decl.exit.thread: ; preds = %41, %_ZNK8datatype4util3fidEv.exit.i.i, %23, %_ZNK8datatype4util3fidEv.exit.i, %_ZNK4decl13get_family_idEv.exit.thread.i.i, %52, %_ZNK8datatype4util14is_constructorEPK4expr.exit, %_ZNK8datatype4util11is_accessorEP9func_decl.exit
  %.0 = phi i1 [ false, %_ZNK8datatype4util11is_accessorEP9func_decl.exit ], [ %56, %52 ], [ false, %_ZNK8datatype4util14is_constructorEPK4expr.exit ], [ false, %_ZNK4decl13get_family_idEv.exit.thread.i.i ], [ false, %_ZNK8datatype4util3fidEv.exit.i ], [ false, %23 ], [ false, %_ZNK8datatype4util3fidEv.exit.i.i ], [ false, %41 ]
  ret i1 %.0
}